target datalayout = "e-m:e-p270:32:32-p271:32:32-p272:64:64-i64:64-i128:128-f80:128-n8:16:32:64-S128"
target triple = "x86_64-pc-linux-gnu"

%class.QString = type { %struct.QArrayDataPointer }
%struct.QArrayDataPointer = type { ptr, ptr, i64 }
%class.Mtp3SummaryDialog = type { %class.WiresharkDialog.base, ptr }
%class.WiresharkDialog.base = type <{ %class.GeometryStateDialog, ptr, i8, [7 x i8], %class.QString, %class.QList, i32, i8 }>
%class.GeometryStateDialog = type { %class.QDialog, %class.QString, ptr }
%class.QDialog = type { %class.QWidget }
%class.QWidget = type { %class.QObject, %class.QPaintDevice.base, ptr }
%class.QObject = type { ptr, %class.QScopedPointer }
%class.QScopedPointer = type { ptr }
%class.QPaintDevice.base = type <{ ptr, i16 }>
%class.QList = type { %struct.QArrayDataPointer.0 }
%struct.QArrayDataPointer.0 = type { ptr, ptr, i64 }
%class.Ui_Mtp3SummaryDialog = type { ptr, ptr, ptr }
%class.QBasicAtomicInteger = type { %"struct.std::atomic" }
%"struct.std::atomic" = type { %"struct.std::__atomic_base" }
%"struct.std::__atomic_base" = type { i32 }
%struct.QArrayData = type { %class.QBasicAtomicInteger, %class.QFlags.4, i64 }
%class.QFlags.4 = type { i32 }

; Function Attrs: mustprogress nounwind null_pointer_is_valid sspstrong uwtable
define linkonce_odr noundef i32 @_ZNSt13__atomic_baseIiEmmEv(ptr noundef align 4 dereferenceable_or_null(4) %0) #6 comdat align 2 {
  %2 = alloca ptr, align 8
  %3 = alloca i32, align 4
  %4 = alloca i32, align 4
  store ptr %0, ptr %2, align 8
  %5 = load ptr, ptr %2, align 8
  %6 = getelementptr inbounds nuw %"struct.std::__atomic_base", ptr %5, i32 0, i32 0
  store i32 1, ptr %3, align 4
  %7 = load i32, ptr %3, align 4
  %8 = atomicrmw sub ptr %6, i32 %7 seq_cst, align 4
  %9 = sub i32 %8, %7
  store i32 %9, ptr %4, align 4
  %10 = load i32, ptr %4, align 4
  ret i32 %10
}

; Function Attrs: inlinehint mustprogress nounwind null_pointer_is_valid sspstrong uwtable
define linkonce_odr noundef zeroext i1 @_ZN10QAtomicOpsIiE5derefIiEEbRSt6atomicIT_E(ptr noundef align 4 dereferenceable(4) %0) #5 comdat align 2 {
  %2 = alloca ptr, align 8
  store ptr %0, ptr %2, align 8
  %3 = load ptr, ptr %2, align 8
  %4 = call noundef i32 @_ZNSt13__atomic_baseIiEmmEv(ptr noundef align 4 dereferenceable_or_null(4) %3) #19
  %5 = icmp ne i32 %4, 0
  ret i1 %5
}

; Function Attrs: mustprogress nounwind null_pointer_is_valid sspstrong uwtable
define linkonce_odr noundef zeroext i1 @_ZN19QBasicAtomicIntegerIiE5derefEv(ptr noundef align 4 dereferenceable_or_null(4) %0) #6 comdat align 2 {
  %2 = alloca ptr, align 8
  store ptr %0, ptr %2, align 8
  %3 = load ptr, ptr %2, align 8
  %4 = getelementptr inbounds nuw %class.QBasicAtomicInteger, ptr %3, i32 0, i32 0
  %5 = call noundef zeroext i1 @_ZN10QAtomicOpsIiE5derefIiEEbRSt6atomicIT_E(ptr noundef align 4 dereferenceable(4) %4) #19
  ret i1 %5
}

; Function Attrs: mustprogress nounwind null_pointer_is_valid sspstrong uwtable
define linkonce_odr noundef zeroext i1 @_ZN10QArrayData5derefEv(ptr noundef align 8 dereferenceable_or_null(16) %0) #6 comdat align 2 {
  %2 = alloca ptr, align 8
  store ptr %0, ptr %2, align 8
  %3 = load ptr, ptr %2, align 8
  %4 = getelementptr inbounds nuw %struct.QArrayData, ptr %3, i32 0, i32 0
  %5 = call noundef zeroext i1 @_ZN19QBasicAtomicIntegerIiE5derefEv(ptr noundef align 4 dereferenceable_or_null(4) %4) #19
  ret i1 %5
}

; Function Attrs: mustprogress nounwind null_pointer_is_valid sspstrong uwtable
define linkonce_odr void @_ZN15QTypedArrayDataIDsE10deallocateEP10QArrayData(ptr noundef %0) #6 comdat align 2 {
  %2 = alloca ptr, align 8
  store ptr %0, ptr %2, align 8
  %3 = load ptr, ptr %2, align 8
  call void @_ZN10QArrayData10deallocateEPS_xx(ptr noundef %3, i64 noundef 2, i64 noundef 8) #19
  ret void
}

; Function Attrs: mustprogress nounwind null_pointer_is_valid sspstrong uwtable
define linkonce_odr void @_ZN9QtPrivate12QPodArrayOpsIDsE10destroyAllEv(ptr noundef align 8 dereferenceable_or_null(24) %0) #6 comdat align 2 {
  %2 = alloca ptr, align 8
  store ptr %0, ptr %2, align 8
  ret void
}

; Function Attrs: mustprogress nounwind null_pointer_is_valid sspstrong uwtable
define linkonce_odr noundef ptr @_ZN17QArrayDataPointerIDsEptEv(ptr noundef align 8 dereferenceable_or_null(24) %0) #6 comdat align 2 {
  %2 = alloca ptr, align 8
  store ptr %0, ptr %2, align 8
  %3 = load ptr, ptr %2, align 8
  ret ptr %3
}

; Function Attrs: mustprogress nounwind null_pointer_is_valid sspstrong uwtable
define linkonce_odr noundef zeroext i1 @_ZN17QArrayDataPointerIDsE5derefEv(ptr noundef align 8 dereferenceable_or_null(24) %0) #6 comdat align 2 {
  %2 = alloca ptr, align 8
  store ptr %0, ptr %2, align 8
  %3 = load ptr, ptr %2, align 8
  %4 = getelementptr inbounds nuw %struct.QArrayDataPointer, ptr %3, i32 0, i32 0
  %5 = load ptr, ptr %4, align 8
  %6 = icmp ne ptr %5, null
  br i1 %6, label %7, label %11

7:                                                ; preds = %1
  %8 = getelementptr inbounds nuw %struct.QArrayDataPointer, ptr %3, i32 0, i32 0
  %9 = load ptr, ptr %8, align 8
  %10 = call noundef zeroext i1 @_ZN10QArrayData5derefEv(ptr noundef align 8 dereferenceable_or_null(16) %9) #19
  br label %11

11:                                               ; preds = %7, %1
  %12 = phi i1 [ true, %1 ], [ %10, %7 ]
  ret i1 %12
}

; Function Attrs: mustprogress nounwind null_pointer_is_valid sspstrong uwtable
define linkonce_odr void @_ZN17QArrayDataPointerIDsED2Ev(ptr noundef align 8 dereferenceable_or_null(24) %0) unnamed_addr #6 comdat align 2 {
  %2 = alloca ptr, align 8
  store ptr %0, ptr %2, align 8
  %3 = load ptr, ptr %2, align 8
  %4 = call noundef zeroext i1 @_ZN17QArrayDataPointerIDsE5derefEv(ptr noundef align 8 dereferenceable_or_null(24) %3) #19
  br i1 %4, label %9, label %5

5:                                                ; preds = %1
  %6 = call noundef ptr @_ZN17QArrayDataPointerIDsEptEv(ptr noundef align 8 dereferenceable_or_null(24) %3) #19
  call void @_ZN9QtPrivate12QPodArrayOpsIDsE10destroyAllEv(ptr noundef align 8 dereferenceable_or_null(24) %6) #19
  %7 = getelementptr inbounds nuw %struct.QArrayDataPointer, ptr %3, i32 0, i32 0
  %8 = load ptr, ptr %7, align 8
  call void @_ZN15QTypedArrayDataIDsE10deallocateEP10QArrayData(ptr noundef %8) #19
  br label %9

9:                                                ; preds = %5, %1
  ret void
}

; Function Attrs: inlinehint mustprogress nounwind null_pointer_is_valid sspstrong uwtable
define linkonce_odr void @_ZN7QStringD2Ev(ptr noundef align 8 dereferenceable_or_null(24) %0) unnamed_addr #5 comdat align 2 {
  %2 = alloca ptr, align 8
  store ptr %0, ptr %2, align 8
  %3 = load ptr, ptr %2, align 8
  %4 = getelementptr inbounds nuw %class.QString, ptr %3, i32 0, i32 0
  call void @_ZN17QArrayDataPointerIDsED2Ev(ptr noundef align 8 dereferenceable_or_null(24) %4) #19
  ret void
}

; Function Attrs: mustprogress null_pointer_is_valid sspstrong uwtable
define void @_ZN17Mtp3SummaryDialog13updateWidgetsEv(ptr noundef align 8 dereferenceable_or_null(152) %0) unnamed_addr #0 align 2 personality ptr @__gxx_personality_v0 {
  %2 = alloca ptr, align 8
  %3 = alloca %class.QString, align 8
  %4 = alloca ptr, align 8
  %5 = alloca i32, align 4
  store ptr %0, ptr %2, align 8
  %6 = load ptr, ptr %2, align 8
  %7 = getelementptr inbounds nuw %class.Mtp3SummaryDialog, ptr %6, i32 0, i32 1
  %8 = load ptr, ptr %7, align 8
  %9 = getelementptr inbounds nuw %class.Ui_Mtp3SummaryDialog, ptr %8, i32 0, i32 1
  %10 = load ptr, ptr %9, align 8
  call void @llvm.lifetime.start.p0(i64 24, ptr %3) #19
  call void @_ZN17Mtp3SummaryDialog13summaryToHtmlEv(ptr dead_on_unwind writable sret(%class.QString) align 8 %3, ptr noundef align 8 dereferenceable_or_null(152) %6)
  invoke void @_ZN9QTextEdit7setHtmlERK7QString(ptr noundef align 8 dereferenceable_or_null(40) %10, ptr noundef align 8 dereferenceable(24) %3)
          to label %11 unwind label %12

11:                                               ; preds = %1
  call void @_ZN7QStringD2Ev(ptr noundef align 8 dereferenceable_or_null(24) %3) #19
  call void @llvm.lifetime.end.p0(i64 24, ptr %3) #19
  call void @_ZN15WiresharkDialog13updateWidgetsEv(ptr noundef align 8 dereferenceable_or_null(141) %6)
  ret void

12:                                               ; preds = %1
  %13 = landingpad { ptr, i32 }
          cleanup
  %14 = extractvalue { ptr, i32 } %13, 0
  store ptr %14, ptr %4, align 8
  %15 = extractvalue { ptr, i32 } %13, 1
  store i32 %15, ptr %5, align 4
  call void @_ZN7QStringD2Ev(ptr noundef align 8 dereferenceable_or_null(24) %3) #19
  call void @llvm.lifetime.end.p0(i64 24, ptr %3) #19
  br label %16

16:                                               ; preds = %12
  %17 = load ptr, ptr %4, align 8
  %18 = load i32, ptr %5, align 4
  %19 = insertvalue { ptr, i32 } poison, ptr %17, 0
  %20 = insertvalue { ptr, i32 } %19, i32 %18, 1
  resume { ptr, i32 } %20
}